target datalayout = "e-m:e-p270:32:32-p271:32:32-p272:64:64-i64:64-i128:128-f80:128-n8:16:32:64-S128"
target triple = "x86_64-pc-linux-gnu"

%"class.gmx::AnalysisDataProxy" = type <{ %"class.gmx::AbstractAnalysisData", %"class.gmx::IAnalysisDataModule", ptr, i32, i32, i8, [7 x i8] }>
%"class.gmx::AbstractAnalysisData" = type { ptr, %"class.std::unique_ptr" }
%"class.std::unique_ptr" = type { %"struct.std::__uniq_ptr_data" }
%"struct.std::__uniq_ptr_data" = type { %"class.std::__uniq_ptr_impl" }
%"class.std::__uniq_ptr_impl" = type { %"class.std::tuple" }
%"class.std::tuple" = type { %"struct.std::_Tuple_impl" }
%"struct.std::_Tuple_impl" = type { %"struct.std::_Head_base.4" }
%"struct.std::_Head_base.4" = type { ptr }
%"class.gmx::IAnalysisDataModule" = type { ptr }

; Function Attrs: mustprogress uwtable
define void @_ZN3gmx17AnalysisDataProxy13frameFinishedERKNS_23AnalysisDataFrameHeaderE(ptr noundef nonnull align 8 dereferenceable(41) %0, ptr noundef nonnull align 4 dereferenceable(12) %1) unnamed_addr #1 align 2 {
  %3 = alloca ptr, align 8
  %4 = alloca ptr, align 8
  store ptr %0, ptr %3, align 8
  store ptr %1, ptr %4, align 8
  %5 = load ptr, ptr %3, align 8
  %6 = getelementptr inbounds %"class.gmx::AnalysisDataProxy", ptr %5, i32 0, i32 5
  %7 = load i8, ptr %6, align 8
  %8 = trunc i8 %7 to i1
  br i1 %8, label %9, label %12

9:                                                ; preds = %2
  %10 = call noundef nonnull align 8 dereferenceable(8) ptr @_ZN3gmx20AbstractAnalysisData13moduleManagerEv(ptr noundef nonnull align 8 dereferenceable(16) %5)
  %11 = load ptr, ptr %4, align 8
  call void @_ZNK3gmx25AnalysisDataModuleManager25notifyParallelFrameFinishERKNS_23AnalysisDataFrameHeaderE(ptr noundef nonnull align 8 dereferenceable(8) %10, ptr noundef nonnull align 4 dereferenceable(12) %11)
  br label %15

12:                                               ; preds = %2
  %13 = call noundef nonnull align 8 dereferenceable(8) ptr @_ZN3gmx20AbstractAnalysisData13moduleManagerEv(ptr noundef nonnull align 8 dereferenceable(16) %5)
  %14 = load ptr, ptr %4, align 8
  call void @_ZNK3gmx25AnalysisDataModuleManager17notifyFrameFinishERKNS_23AnalysisDataFrameHeaderE(ptr noundef nonnull align 8 dereferenceable(8) %13, ptr noundef nonnull align 4 dereferenceable(12) %14)
  br label %15

15:                                               ; preds = %12, %9
  ret void
}

; Function Attrs: uwtable
define void @_ZThn16_N3gmx17AnalysisDataProxy13frameFinishedERKNS_23AnalysisDataFrameHeaderE(ptr noundef %0, ptr noundef nonnull align 4 dereferenceable(12) %1) unnamed_addr #3 align 2 {
  %3 = alloca ptr, align 8
  %4 = alloca ptr, align 8
  store ptr %0, ptr %3, align 8
  store ptr %1, ptr %4, align 8
  %5 = load ptr, ptr %3, align 8
  %6 = getelementptr inbounds i8, ptr %5, i64 -16
  %7 = load ptr, ptr %4, align 8
  tail call void @_ZN3gmx17AnalysisDataProxy13frameFinishedERKNS_23AnalysisDataFrameHeaderE(ptr noundef nonnull align 8 dereferenceable(41) %6, ptr noundef nonnull align 4 dereferenceable(12) %7)
  ret void
}