; Function Attrs: uwtable
define void @_ZThn16_N3gmx17AnalysisDataProxy13frameFinishedERKNS_23AnalysisDataFrameHeaderE(ptr noundef %0, ptr noundef nonnull align 4 dereferenceable(12) %1) unnamed_addr #4 align 2 {
  %3 = getelementptr inbounds i8, ptr %0, i64 -16
  %4 = getelementptr inbounds i8, ptr %0, i64 24
  %5 = load i8, ptr %4, align 8
  %6 = trunc i8 %5 to i1
  %7 = tail call noundef nonnull align 8 dereferenceable(8) ptr @_ZN3gmx20AbstractAnalysisData13moduleManagerEv(ptr noundef nonnull align 8 dereferenceable(16) %3)
  br i1 %6, label %8, label %9

8:                                                ; preds = %2
  tail call void @_ZNK3gmx25AnalysisDataModuleManager25notifyParallelFrameFinishERKNS_23AnalysisDataFrameHeaderE(ptr noundef nonnull align 8 dereferenceable(8) %7, ptr noundef nonnull align 4 dereferenceable(12) %1)
  br label %_ZN3gmx17AnalysisDataProxy13frameFinishedERKNS_23AnalysisDataFrameHeaderE.exit

9:                                                ; preds = %2
  tail call void @_ZNK3gmx25AnalysisDataModuleManager17notifyFrameFinishERKNS_23AnalysisDataFrameHeaderE(ptr noundef nonnull align 8 dereferenceable(8) %7, ptr noundef nonnull align 4 dereferenceable(12) %1)
  br label %_ZN3gmx17AnalysisDataProxy13frameFinishedERKNS_23AnalysisDataFrameHeaderE.exit

_ZN3gmx17AnalysisDataProxy13frameFinishedERKNS_23AnalysisDataFrameHeaderE.exit: ; preds = %8, %9
  ret void
}